; Function Attrs: mustprogress nofree norecurse nosync nounwind willreturn memory(argmem: readwrite) uwtable
define void @_ZNK5arrow2io12StdoutStream4TellEv(ptr noalias nocapture writeonly sret(%"class.arrow::Result") align 8 %agg.result, ptr nocapture noundef nonnull readonly align 8 dereferenceable(16) %this) unnamed_addr #6 align 2 {
entry:
  %pos_ = getelementptr inbounds i8, ptr %this, i64 8
  store ptr null, ptr %agg.result, align 8
  %storage_.i.i = getelementptr inbounds i8, ptr %agg.result, i64 8
  %0 = load i64, ptr %pos_, align 8
  store i64 %0, ptr %storage_.i.i, align 8
  ret void
}